(dp0
S'destination_Rockerbox'
p1
I0
sS'source_Cloudflare'
p2
I1
sS'destination_Hindsight'
p3
I2
sS'destination_Sailthru'
p4
I3
sS'destination_Chartbeat'
p5
I4
sS'destination_HasOffers'
p6
I5
sS'destination_Mixpanel'
p7
I6
sS'destination_UserVoice'
p8
I7
sS'source_Appboy'
p9
I8
sS'source_Radar'
p10
I9
sS'destination_Repeater'
p11
I10
sS'destination_Visual Website Optimizer'
p12
I11
sS'destination_Relay'
p13
I12
sS'destination_Adobe Analytics'
p14
I195
sS'destination_sendinblue'
p15
I14
sS'destination_Blueshift'
p16
I15
sS'destination_MediaMath'
p17
I17
sS'destination_Get Satisfaction'
p18
I18
sS'destination_Omniture'
p19
I19
sS'destination_Dev'
p20
I20
sS'destination_TUNE'
p21
I21
sS'destination_Xplenty'
p22
I22
sS'destination_LinkedIn Insight Tag'
p23
I23
sS'destination_Pingdom'
p24
I24
sS'destination_Adjust'
p25
I25
sS'source_Blueshift'
p26
I26
sS'destination_WebEngage'
p27
I27
sS'source_Wordpress'
p28
I28
sS'destination_Appcues'
p29
I29
sS'destination_Curebit'
p30
I30
sS'destination_Whale Alerts'
p31
I31
sS'destination_IBM Repeater'
p32
I32
sS'destination_Kenshoo'
p33
I33
sS'destination_Bronto'
p34
I34
sS'source_end-to-end-test'
p35
I35
sS'source_Android'
p36
I36
sS'destination_Amplitude'
p37
I198
sS'destination_Librato'
p38
I38
sS'destination_Help Scout'
p39
I39
sS'destination_Indicative'
p40
I40
sS'destination_Facebook Custom Audiences'
p41
I41
sS'destination_Chameleon'
p42
I42
sS'destination_Drip'
p43
I43
sS'destination_Development'
p44
I44
sS'source_MySQL'
p45
I45
sS'destination_Facebook Pixel'
p46
I46
sS'destination_Nielsen DCR'
p47
I47
sS'destination_Qualaroo'
p48
I48
sS'destination_HelloWorld'
p49
I316
sS'destination_Stripe Radar'
p50
I49
sS'destination_Smyte'
p51
I50
sS'source_Google AdWords'
p52
I51
sS'destination_MailChimp'
p53
I52
sS'source_.NET'
p54
I53
sS'destination_Emarsys'
p55
I54
sS'destination_Callexa'
p56
I332
sS'source_Factual Engine'
p57
I56
sS'destination_IBM Db2 Warehouse'
p58
I57
sS'source_HubSpot'
p59
I58
sS'destination_Branch Metrics'
p60
I59
sS'destination_Primer'
p61
I60
sS'source_INTERNAL: ETL Billing'
p62
I61
sS'destination_Wagon'
p63
I62
sS'source_HTTP API'
p64
I63
sS'destination_Moosend'
p65
I296
sS'source_Desk.com'
p66
I65
sS'source_INTERNAL: ETL Integrations Counters'
p67
I66
sS'destination_Stitch Data'
p68
I67
sS'destination_SparkPost'
p69
I68
sS'destination_Sendwithus'
p70
I69
sS'destination_Kochava'
p71
I70
sS'destination_Attune'
p72
I71
sS'destination_FullContact'
p73
I207
sS'destination_SaaSquatch'
p74
I72
sS'destination_Tapstream'
p75
I210
sS'destination_Centrifuge Load'
p76
I74
sS'source_Xamarin'
p77
I75
sS'destination_Azure SQL Data Warehouse'
p78
I147
sS'source_Salesforce Marketing Cloud'
p79
I77
sS'destination_Interstate Analytics'
p80
I78
sS'destination_Adobe Target'
p81
I79
sS'destination_SparkPage'
p82
I80
sS'source_React Native'
p83
I81
sS'destination_Mailjet'
p84
I82
sS'destination_AdWords Remarketing Lists'
p85
I83
sS'destination_Crittercism'
p86
I272
sS'destination_Perfect Audience'
p87
I85
sS'destination_Frontleaf'
p88
I86
sS'destination_Rollbar'
p89
I87
sS'destination_Clearbit Enrichment'
p90
I88
sS'source_MongoDB'
p91
I89
sS'source_SendGrid'
p92
I90
sS'destination_MoEngage'
p93
I91
sS'destination_Churnspotter'
p94
I92
sS'destination_Optimizely Full Stack'
p95
I93
sS'destination_Zendesk'
p96
I94
sS'destination_Bugsnag'
p97
I95
sS'destination_Google AdWords New'
p98
I96
sS'source_Chatlio'
p99
I97
sS'destination_Knowtify'
p100
I98
sS'destination_Sentry'
p101
I99
sS'destination_ActiveCampaign'
p102
I100
sS'destination_Pendo'
p103
I101
sS'source_Clojure'
p104
I102
sS'destination_Userlike'
p105
I103
sS'destination_Route'
p106
I104
sS'destination_Hello Bar'
p107
I105
sS'source_Drip'
p108
I106
sS'destination_FullStory'
p109
I107
sS'destination_Drift'
p110
I108
sS'source_Iterable'
p111
I109
sS'destination_comScore'
p112
I110
sS'destination_Nielsen'
p113
I111
sS'source_Delighted'
p114
I112
sS'destination_Ambassador'
p115
I113
sS'source_Audiences'
p116
I114
sS'destination_Apptimize'
p117
I115
sS'destination_Amazon S3'
p118
I116
sS'destination_Whale Watch'
p119
I117
sS'destination_Yellowhammer'
p120
I118
sS'source_iOS'
p121
I119
sS'source_Java'
p122
I120
sS'destination_goedle.io'
p123
I121
sS'source_nan'
p124
I122
sS'destination_Seg'
p125
I123
sS'destination_Machinify'
p126
I124
sS'destination_MovableInk'
p127
I125
sS'destination_ClientSuccess'
p128
I126
sS'destination_Redshift'
p129
I127
sS'destination_Iron.io'
p130
I128
sS'destination_Spinnakr'
p131
I129
sS'destination_AppsFlyer'
p132
I130
sS'source_Twilio'
p133
I131
sS'destination_Mouseflow'
p134
I132
sS'destination_Facebook App Events'
p135
I133
sS'destination_Attribution'
p136
I134
sS'source_Facebook Ads'
p137
I135
sS'destination_Kissmetrics'
p138
I136
sS'destination_Salesforce Live Agent'
p139
I137
sS'destination_Amazon Kinesis'
p140
I376
sS'destination_Lytics'
p141
I138
sS'destination_trak.io'
p142
I139
sS'destination_Eloqua'
p143
I186
sS'destination_Postgres'
p144
I141
sS'destination_Google Cloud PubSub'
p145
I142
sS'destination_AdWords'
p146
I286
sS'destination_BIME'
p147
I144
sS'destination_Salesmachine'
p148
I145
sS'destination_Leanplum'
p149
I146
sS'destination_Atatus'
p150
I76
sS'destination_Email Aptitude'
p151
I148
sS'destination_SimpleReach'
p152
I149
sS'source_Zendesk'
p153
I150
sS'destination_HitTail'
p154
I151
sS'destination_Track JS'
p155
I152
sS'destination_Calq'
p156
I153
sS'destination_Pinterest Tag'
p157
I154
sS'destination_Quora Conversion Pixel'
p158
I155
sS'destination_Salesforce Marketing Cloud'
p159
I156
sS'destination_Woopra'
p160
I157
sS'destination_Rocket Fuel'
p161
I158
sS'source_Magento'
p162
I159
sS'destination_awe.sm'
p163
I160
sS'destination_Evergage'
p164
I161
sS'destination_Alexa'
p165
I162
sS'destination_Planhat'
p166
I163
sS'destination_Swrve'
p167
I164
sS'destination_Improvely'
p168
I165
sS'destination_Wigzo'
p169
I166
sS'destination_Castle'
p170
I167
sS'destination_Treasure Data'
p171
I168
sS'source_Segment'
p172
I169
sS'destination_Lifecycle'
p173
I170
sS'destination_Criteo'
p174
I260
sS'destination_Aboardly'
p175
I172
sS'source_Google Ads'
p176
I173
sS'destination_Quantcast'
p177
I174
sS'source_PRIVATE: pg-history'
p178
I175
sS'destination_Zapier'
p179
I176
sS'destination_Millennial Media'
p180
I177
sS'destination_DoubleClick Floodlight'
p181
I179
sS'destination_Goedle'
p182
I180
sS'destination_Mode'
p183
I181
sS'destination_Delighted'
p184
I182
sS'source_PHP'
p185
I183
sS'destination_Lucky Orange'
p186
I184
sS'destination_Amazon Kinesis Firehose'
p187
I185
sS'source_INTERNAL: ETL Mongo'
p188
I187
sS'destination_Aptrinsic'
p189
I188
sS'source_Customer.io'
p190
I189
sS'destination_MouseStats'
p191
I190
sS'destination_Ask Nicely'
p192
I191
sS'destination_Kilometer.io'
p193
I313
sS'destination_Driftt'
p194
I193
sS'destination_Customer.io'
p195
I194
sS'destination_Klaviyo'
p196
I13
sS'destination_AutopilotHQ'
p197
I197
sS'source_Vero'
p198
I37
sS'source_Go'
p199
I199
sS'source_Klaviyo'
p200
I200
sS'destination_blueshift'
p201
I201
sS'destination_Iterable'
p202
I202
sS'destination_Yandex Metrica'
p203
I203
sS'destination_Promoter.io'
p204
I204
sS'source_Python'
p205
I205
sS'source_SalesforceIQ'
p206
I206
sS'source_Node.js'
p207
I16
sS'destination_Flurry'
p208
I208
sS'destination_Intellimize'
p209
I209
sS'destination_Salesforce DMP'
p210
I73
sS'destination_Boomtrain'
p211
I211
sS'destination_Heap'
p212
I212
sS'source_Mailchimp'
p213
I213
sS'destination_Optimizely'
p214
I214
sS'destination_Localytics'
p215
I215
sS'destination_RadiumOne Connect'
p216
I216
sS'destination_Olark'
p217
I217
sS'source_WooCommerce'
p218
I218
sS'destination_CleverTap'
p219
I219
sS'destination_Braze'
p220
I220
sS'destination_Urban Airship'
p221
I221
sS'destination_Zaius'
p222
I222
sS'destination_LiveChat'
p223
I223
sS'source_Javascript'
p224
I224
sS'source_Mailjet'
p225
I225
sS'destination_Vero'
p226
I226
sS'destination_Selligent'
p227
I227
sS'destination_nan'
p228
I228
sS'destination_UserEngage'
p229
I229
sS'destination_Adometry'
p230
I230
sS'source_Postgres'
p231
I231
sS'destination_Bing Ads'
p232
I232
sS'destination_Totango'
p233
I233
sS'source_Mandrill'
p234
I234
sS'destination_Hull'
p235
I235
sS'destination_Impact Radius'
p236
I236
sS'destination_New Relic'
p237
I237
sS'destination_ShareASale'
p238
I238
sS'destination_Rubicon Project'
p239
I239
sS'destination_Autosend'
p240
I240
sS'destination_Responsys'
p241
I241
sS'destination_Interana'
p242
I242
sS'destination_Kahuna'
p243
I243
sS'destination_Tableau'
p244
I244
sS'destination_SnapEngage'
p245
I245
sS'destination_Nudgespot'
p246
I246
sS'source_Shopify'
p247
I247
sS'destination_Salesforce'
p248
I248
sS'destination_Azure SQL'
p249
I249
sS'destination_Optimizely X'
p250
I250
sS'destination_Clearbit Reveal'
p251
I251
sS'destination_IBM Db2'
p252
I252
sS'destination_JackDB'
p253
I253
sS'destination_Webhooks'
p254
I370
sS'destination_Hotjar'
p255
I255
sS'destination_Zenit'
p256
I256
sS'destination_SupportHero'
p257
I257
sS'destination_Webtrends'
p258
I258
sS'destination_Clicky'
p259
I259
sS'destination_Navilytics'
p260
I84
sS'destination_GoSquared'
p261
I171
sS'destination_Monetate'
p262
I261
sS'source_INTERNAL: SQV Test Publisher'
p263
I262
sS'destination_Gainsight'
p264
I263
sS'destination_Stitch'
p265
I264
sS'destination_Crazy Egg'
p266
I265
sS'destination_Looker'
p267
I266
sS'destination_Kenshoo Infinity'
p268
I267
sS'source_Pixel Tracking API'
p269
I268
sS'destination_Freshdesk'
p270
I269
sS'destination_AppNexus'
p271
I270
sS'source_INTERNAL: Datadog'
p272
I271
sS'source_INTERNAL: ETL Usage'
p273
I196
sS'source_AutopilotHQ'
p274
I273
sS'destination_Google Analytics'
p275
I274
sS'destination_Wootric'
p276
I275
sS'destination_Keen'
p277
I276
sS'destination_Centrifuge QA'
p278
I277
sS'destination_KISSmetrics'
p279
I278
sS'destination_BigQuery'
p280
I279
sS'destination_PERSONAS - Facebook Ads'
p281
I280
sS'destination_StreetHawk'
p282
I281
sS'destination_Threads'
p283
I282
sS'destination_Marketo Static Lists'
p284
I283
sS'source_Friendbuy'
p285
I284
sS'destination_Optimizely Web'
p286
I285
sS'destination_Firebase'
p287
I143
sS'destination_Adobe Marketing Cloud'
p288
I287
sS'destination_Rockerbox [Deprecated]'
p289
I288
sS'destination_FullProfile'
p290
I289
sS'destination_Tag Injector'
p291
I290
sS'destination_Watsi'
p292
I291
sS'destination_Steelhouse'
p293
I292
sS'source_Intercom'
p294
I293
sS'destination_Youbora'
p295
I294
sS'source_Braze'
p296
I295
sS'destination_Chartio'
p297
I297
sS'destination_Clearbit'
p298
I178
sS'destination_FriendBuy'
p299
I299
sS'destination_SatisMeter'
p300
I300
sS'source_Looker'
p301
I301
sS'source_Stripe'
p302
I302
sS'destination_FoxMetrics'
p303
I303
sS'source_Marketo'
p304
I304
sS'source_ActiveCampaign'
p305
I305
sS'destination_PERSONAS - Google AdWords'
p306
I306
sS'destination_BugHerd'
p307
I307
sS'destination_Perimeterx'
p308
I308
sS'source_INTERNAL: ETL Postgres'
p309
I309
sS'destination_Movable Ink'
p310
I311
sS'destination_Periscope.io'
p311
I312
sS'destination_Fake Audience Destination'
p312
I298
sS'source_Chrome Extension'
p313
I140
sS'destination_IbmUbx'
p314
I314
sS'destination_Sherlock'
p315
I315
sS'source_Nudgespot'
p316
I310
sS'destination_LeadBoxer'
p317
I317
sS'destination_Personas Facebook Custom Audiences'
p318
I318
sS'destination_Outbound'
p319
I319
sS'destination_Marketo'
p320
I320
sS'destination_Zopim'
p321
I321
sS'source_Project'
p322
I322
sS'destination_IBM UBX'
p323
I323
sS'destination_Twitter Ads'
p324
I324
sS'destination_Elevio'
p325
I325
sS'source_AMP'
p326
I326
sS'destination_AdRoll'
p327
I327
sS'destination_Braze-IBM'
p328
I328
sS'destination_OneSpot'
p329
I329
sS'destination_Batch'
p330
I330
sS'destination_Intercom'
p331
I331
sS'destination_Natero'
p332
I55
sS'source_Personas'
p333
I379
sS'source_QA'
p334
I334
sS'destination_Facebook Conversion Tracking'
p335
I335
sS'destination_Madkudu'
p336
I336
sS'destination_Gauges'
p337
I337
sS'destination_Airtable'
p338
I338
sS'destination_OneSignal'
p339
I339
sS'destination_tray.io'
p340
I340
sS'source_Google Adwords'
p341
I341
sS'destination_Appboy'
p342
I342
sS'destination_TV Squared'
p343
I343
sS'destination_Cordial'
p344
I344
sS'destination_Awesomatic'
p345
I345
sS'destination_Marketo V2'
p346
I346
sS'destination_TellApart'
p347
I347
sS'source_Youbora'
p348
I348
sS'destination_Errorception'
p349
I349
sS'source_Facebook Lead Ads'
p350
I350
sS'destination_Friendbuy'
p351
I351
sS'destination_Parsely'
p352
I352
sS'destination_Ramen'
p353
I353
sS'destination_DataXu'
p354
I354
sS'destination_Countly'
p355
I355
sS'destination_QuanticMind'
p356
I356
sS'destination_Tractionboard'
p357
I357
sS'destination_AdLearn Open Platform'
p358
I358
sS'destination_All Aboard'
p359
I359
sS'destination_Mojn'
p360
I360
sS'destination_Convertro'
p361
I361
sS'destination_Bluecore'
p362
I362
sS'destination_Simpli.fi'
p363
I363
sS'source_INTERNAL: ETL Cloudhealth'
p364
I364
sS'destination_MaestroIQ'
p365
I365
sS'source_Selligent'
p366
I366
sS'destination_HotJar'
p367
I367
sS'destination_Heroku Kafka'
p368
I368
sS'destination_Infinario'
p369
I369
sS'destination_Keen IO'
p370
I254
sS'destination_Preact'
p371
I371
sS'destination_Taplytics'
p372
I372
sS'destination_Freshsales'
p373
I373
sS'destination_Snowflake'
p374
I374
sS'destination_HubSpot'
p375
I375
sS'destination_active-campaign'
p376
I64
sS'destination_Nanigans'
p377
I192
sS'destination_Extole'
p378
I377
sS'destination_Akita'
p379
I378
sS'source_Salesforce'
p380
I333
sS'destination_Facebook Offline Conversions'
p381
I380
sS'source_Ruby'
p382
I381
sS'destination_Pardot'
p383
I382
sS'destination_Piwik'
p384
I383
sS'destination_Pointillist'
p385
I384
sS'destination_Wishpond'
p386
I385
sS'destination_Slack'
p387
I386
sS'destination_Inspectlet'
p388
I387
sS'destination_Google Tag Manager'
p389
I388
s.